target datalayout = "e-m:e-p270:32:32-p271:32:32-p272:64:64-i64:64-i128:128-f80:128-n8:16:32:64-S128"
target triple = "x86_64-pc-linux-gnu"

%struct.pg_prng_state = type { i64, i64 }

@log_duration = external global i8, align 1
@log_min_duration_sample = external global i32, align 4
@log_min_duration_statement = external global i32, align 4
@xact_is_sampled = external global i8, align 1
@log_statement_sample_rate = external global double, align 8
@pg_global_prng_state = external global %struct.pg_prng_state, align 8
@.str.9 = private unnamed_addr constant [9 x i8] c"%ld.%03d\00", align 1

; Function Attrs: nounwind uwtable
define dso_local i32 @check_log_duration(ptr noundef %0, i1 noundef zeroext %1) #0 {
  %3 = alloca i32, align 4
  %4 = alloca ptr, align 8
  %5 = alloca i8, align 1
  %6 = alloca i64, align 8
  %7 = alloca i32, align 4
  %8 = alloca i32, align 4
  %9 = alloca i8, align 1
  %10 = alloca i8, align 1
  %11 = alloca i8, align 1
  %12 = alloca i32, align 4
  store ptr %0, ptr %4, align 8
  %13 = zext i1 %1 to i8
  store i8 %13, ptr %5, align 1
  %14 = load i8, ptr @log_duration, align 1, !range !4, !noundef !5
  %15 = trunc i8 %14 to i1
  br i1 %15, label %25, label %16

16:                                               ; preds = %2
  %17 = load i32, ptr @log_min_duration_sample, align 4
  %18 = icmp sge i32 %17, 0
  br i1 %18, label %25, label %19

19:                                               ; preds = %16
  %20 = load i32, ptr @log_min_duration_statement, align 4
  %21 = icmp sge i32 %20, 0
  br i1 %21, label %25, label %22

22:                                               ; preds = %19
  %23 = load i8, ptr @xact_is_sampled, align 1, !range !4, !noundef !5
  %24 = trunc i8 %23 to i1
  br i1 %24, label %25, label %140

25:                                               ; preds = %22, %19, %16, %2
  call void @llvm.lifetime.start.p0(i64 8, ptr %6) #16
  call void @llvm.lifetime.start.p0(i64 4, ptr %7) #16
  call void @llvm.lifetime.start.p0(i64 4, ptr %8) #16
  call void @llvm.lifetime.start.p0(i64 1, ptr %9) #16
  call void @llvm.lifetime.start.p0(i64 1, ptr %10) #16
  call void @llvm.lifetime.start.p0(i64 1, ptr %11) #16
  store i8 0, ptr %11, align 1
  %26 = call i64 @GetCurrentStatementStartTimestamp()
  %27 = call i64 @GetCurrentTimestamp()
  call void @TimestampDifference(i64 noundef %26, i64 noundef %27, ptr noundef %6, ptr noundef %7)
  %28 = load i32, ptr %7, align 4
  %29 = sdiv i32 %28, 1000
  store i32 %29, ptr %8, align 4
  %30 = load i32, ptr @log_min_duration_statement, align 4
  %31 = icmp eq i32 %30, 0
  br i1 %31, label %54, label %32

32:                                               ; preds = %25
  %33 = load i32, ptr @log_min_duration_statement, align 4
  %34 = icmp sgt i32 %33, 0
  br i1 %34, label %35, label %52

35:                                               ; preds = %32
  %36 = load i64, ptr %6, align 8
  %37 = load i32, ptr @log_min_duration_statement, align 4
  %38 = sdiv i32 %37, 1000
  %39 = sext i32 %38 to i64
  %40 = icmp sgt i64 %36, %39
  br i1 %40, label %50, label %41

41:                                               ; preds = %35
  %42 = load i64, ptr %6, align 8
  %43 = mul i64 %42, 1000
  %44 = load i32, ptr %8, align 4
  %45 = sext i32 %44 to i64
  %46 = add i64 %43, %45
  %47 = load i32, ptr @log_min_duration_statement, align 4
  %48 = sext i32 %47 to i64
  %49 = icmp sge i64 %46, %48
  br label %50

50:                                               ; preds = %41, %35
  %51 = phi i1 [ true, %35 ], [ %49, %41 ]
  br label %52

52:                                               ; preds = %50, %32
  %53 = phi i1 [ false, %32 ], [ %51, %50 ]
  br label %54

54:                                               ; preds = %52, %25
  %55 = phi i1 [ true, %25 ], [ %53, %52 ]
  %56 = zext i1 %55 to i8
  store i8 %56, ptr %9, align 1
  %57 = load i32, ptr @log_min_duration_sample, align 4
  %58 = icmp eq i32 %57, 0
  br i1 %58, label %81, label %59

59:                                               ; preds = %54
  %60 = load i32, ptr @log_min_duration_sample, align 4
  %61 = icmp sgt i32 %60, 0
  br i1 %61, label %62, label %79

62:                                               ; preds = %59
  %63 = load i64, ptr %6, align 8
  %64 = load i32, ptr @log_min_duration_sample, align 4
  %65 = sdiv i32 %64, 1000
  %66 = sext i32 %65 to i64
  %67 = icmp sgt i64 %63, %66
  br i1 %67, label %77, label %68

68:                                               ; preds = %62
  %69 = load i64, ptr %6, align 8
  %70 = mul i64 %69, 1000
  %71 = load i32, ptr %8, align 4
  %72 = sext i32 %71 to i64
  %73 = add i64 %70, %72
  %74 = load i32, ptr @log_min_duration_sample, align 4
  %75 = sext i32 %74 to i64
  %76 = icmp sge i64 %73, %75
  br label %77

77:                                               ; preds = %68, %62
  %78 = phi i1 [ true, %62 ], [ %76, %68 ]
  br label %79

79:                                               ; preds = %77, %59
  %80 = phi i1 [ false, %59 ], [ %78, %77 ]
  br label %81

81:                                               ; preds = %79, %54
  %82 = phi i1 [ true, %54 ], [ %80, %79 ]
  %83 = zext i1 %82 to i8
  store i8 %83, ptr %10, align 1
  %84 = load i8, ptr %10, align 1, !range !4, !noundef !5
  %85 = trunc i8 %84 to i1
  br i1 %85, label %86, label %101

86:                                               ; preds = %81
  %87 = load double, ptr @log_statement_sample_rate, align 8
  %88 = fcmp une double %87, 0.000000e+00
  br i1 %88, label %89, label %98

89:                                               ; preds = %86
  %90 = load double, ptr @log_statement_sample_rate, align 8
  %91 = fcmp oeq double %90, 1.000000e+00
  br i1 %91, label %96, label %92

92:                                               ; preds = %89
  %93 = call double @pg_prng_double(ptr noundef @pg_global_prng_state)
  %94 = load double, ptr @log_statement_sample_rate, align 8
  %95 = fcmp ole double %93, %94
  br label %96

96:                                               ; preds = %92, %89
  %97 = phi i1 [ true, %89 ], [ %95, %92 ]
  br label %98

98:                                               ; preds = %96, %86
  %99 = phi i1 [ false, %86 ], [ %97, %96 ]
  %100 = zext i1 %99 to i8
  store i8 %100, ptr %11, align 1
  br label %101

101:                                              ; preds = %98, %81
  %102 = load i8, ptr %9, align 1, !range !4, !noundef !5
  %103 = trunc i8 %102 to i1
  br i1 %103, label %113, label %104

104:                                              ; preds = %101
  %105 = load i8, ptr %11, align 1, !range !4, !noundef !5
  %106 = trunc i8 %105 to i1
  br i1 %106, label %113, label %107

107:                                              ; preds = %104
  %108 = load i8, ptr @log_duration, align 1, !range !4, !noundef !5
  %109 = trunc i8 %108 to i1
  br i1 %109, label %113, label %110

110:                                              ; preds = %107
  %111 = load i8, ptr @xact_is_sampled, align 1, !range !4, !noundef !5
  %112 = trunc i8 %111 to i1
  br i1 %112, label %113, label %136

113:                                              ; preds = %110, %107, %104, %101
  %114 = load ptr, ptr %4, align 8
  %115 = load i64, ptr %6, align 8
  %116 = mul i64 %115, 1000
  %117 = load i32, ptr %8, align 4
  %118 = sext i32 %117 to i64
  %119 = add i64 %116, %118
  %120 = load i32, ptr %7, align 4
  %121 = srem i32 %120, 1000
  %122 = call i32 (ptr, i64, ptr, ...) @pg_snprintf(ptr noundef %114, i64 noundef 32, ptr noundef @.str.9, i64 noundef %119, i32 noundef %121)
  %123 = load i8, ptr %9, align 1, !range !4, !noundef !5
  %124 = trunc i8 %123 to i1
  br i1 %124, label %131, label %125

125:                                              ; preds = %113
  %126 = load i8, ptr %11, align 1, !range !4, !noundef !5
  %127 = trunc i8 %126 to i1
  br i1 %127, label %131, label %128

128:                                              ; preds = %125
  %129 = load i8, ptr @xact_is_sampled, align 1, !range !4, !noundef !5
  %130 = trunc i8 %129 to i1
  br i1 %130, label %131, label %135

131:                                              ; preds = %128, %125, %113
  %132 = load i8, ptr %5, align 1, !range !4, !noundef !5
  %133 = trunc i8 %132 to i1
  br i1 %133, label %135, label %134

134:                                              ; preds = %131
  store i32 2, ptr %3, align 4
  store i32 1, ptr %12, align 4
  br label %137

135:                                              ; preds = %131, %128
  store i32 1, ptr %3, align 4
  store i32 1, ptr %12, align 4
  br label %137

136:                                              ; preds = %110
  store i32 0, ptr %12, align 4
  br label %137

137:                                              ; preds = %136, %135, %134
  call void @llvm.lifetime.end.p0(i64 1, ptr %11) #16
  call void @llvm.lifetime.end.p0(i64 1, ptr %10) #16
  call void @llvm.lifetime.end.p0(i64 1, ptr %9) #16
  call void @llvm.lifetime.end.p0(i64 4, ptr %8) #16
  call void @llvm.lifetime.end.p0(i64 4, ptr %7) #16
  call void @llvm.lifetime.end.p0(i64 8, ptr %6) #16
  %138 = load i32, ptr %12, align 4
  switch i32 %138, label %143 [
    i32 0, label %139
    i32 1, label %141
  ]

139:                                              ; preds = %137
  br label %140

140:                                              ; preds = %139, %22
  store i32 0, ptr %3, align 4
  br label %141

141:                                              ; preds = %140, %137
  %142 = load i32, ptr %3, align 4
  ret i32 %142

143:                                              ; preds = %137
  unreachable
}