; Function Attrs: nounwind uwtable
define dso_local range(i32 0, 3) i32 @check_log_duration(ptr noundef %0, i1 noundef zeroext %1) local_unnamed_addr #0 {
  %3 = alloca i64, align 8
  %4 = alloca i32, align 4
  %5 = load i8, ptr @log_duration, align 1, !range !5, !noundef !6
  %6 = trunc nuw i8 %5 to i1
  %7 = load i32, ptr @log_min_duration_sample, align 4
  %8 = icmp sgt i32 %7, -1
  %or.cond = select i1 %6, i1 true, i1 %8
  %9 = load i32, ptr @log_min_duration_statement, align 4
  %10 = icmp sgt i32 %9, -1
  %or.cond3 = select i1 %or.cond, i1 true, i1 %10
  br i1 %or.cond3, label %14, label %11

11:                                               ; preds = %2
  %12 = load i8, ptr @xact_is_sampled, align 1, !range !5, !noundef !6
  %13 = trunc nuw i8 %12 to i1
  br i1 %13, label %14, label %81

14:                                               ; preds = %11, %2
  call void @llvm.lifetime.start.p0(i64 8, ptr nonnull %3) #22
  call void @llvm.lifetime.start.p0(i64 4, ptr nonnull %4) #22
  %15 = tail call i64 @GetCurrentStatementStartTimestamp() #22
  %16 = tail call i64 @GetCurrentTimestamp() #22
  call void @TimestampDifference(i64 noundef %15, i64 noundef %16, ptr noundef nonnull %3, ptr noundef nonnull %4) #22
  %17 = load i32, ptr %4, align 4
  %18 = sdiv i32 %17, 1000
  %19 = load i32, ptr @log_min_duration_statement, align 4
  %20 = icmp eq i32 %19, 0
  br i1 %20, label %34, label %21

21:                                               ; preds = %14
  %22 = icmp sgt i32 %19, 0
  br i1 %22, label %23, label %34

23:                                               ; preds = %21
  %24 = load i64, ptr %3, align 8
  %25 = udiv i32 %19, 1000
  %26 = zext nneg i32 %25 to i64
  %27 = icmp sgt i64 %24, %26
  br i1 %27, label %34, label %28

28:                                               ; preds = %23
  %29 = mul i64 %24, 1000
  %30 = sext i32 %18 to i64
  %31 = add i64 %29, %30
  %32 = zext nneg i32 %19 to i64
  %33 = icmp sge i64 %31, %32
  br label %34

34:                                               ; preds = %21, %28, %23, %14
  %35 = phi i1 [ true, %14 ], [ false, %21 ], [ true, %23 ], [ %33, %28 ]
  %36 = load i32, ptr @log_min_duration_sample, align 4
  %37 = icmp eq i32 %36, 0
  br i1 %37, label %.critedge, label %38

38:                                               ; preds = %34
  %39 = icmp sgt i32 %36, 0
  br i1 %39, label %40, label %.critedge22

40:                                               ; preds = %38
  %41 = load i64, ptr %3, align 8
  %42 = udiv i32 %36, 1000
  %43 = zext nneg i32 %42 to i64
  %44 = icmp sgt i64 %41, %43
  br i1 %44, label %.critedge, label %45

45:                                               ; preds = %40
  %46 = mul i64 %41, 1000
  %47 = sext i32 %18 to i64
  %48 = add i64 %46, %47
  %49 = zext nneg i32 %36 to i64
  %.not32 = icmp slt i64 %48, %49
  br i1 %.not32, label %.critedge22, label %.critedge

.critedge:                                        ; preds = %34, %40, %45
  %50 = load double, ptr @log_statement_sample_rate, align 8
  %51 = fcmp une double %50, 0.000000e+00
  br i1 %51, label %52, label %.critedge22

52:                                               ; preds = %.critedge
  %53 = fcmp oeq double %50, 1.000000e+00
  br i1 %53, label %.critedge31, label %54

54:                                               ; preds = %52
  %55 = call double @pg_prng_double(ptr noundef nonnull @pg_global_prng_state) #22
  %56 = load double, ptr @log_statement_sample_rate, align 8
  %57 = fcmp ole double %55, %56
  br label %.critedge22

.critedge22:                                      ; preds = %38, %.critedge, %54, %45
  %.014 = phi i1 [ false, %45 ], [ false, %.critedge ], [ %57, %54 ], [ false, %38 ]
  %brmerge = select i1 %35, i1 true, i1 %.014
  br i1 %brmerge, label %.critedge22..critedge31_crit_edge, label %58

.critedge22..critedge31_crit_edge:                ; preds = %.critedge22
  %.pre = load i32, ptr %4, align 4
  br label %.critedge31

58:                                               ; preds = %.critedge22
  %59 = load i8, ptr @log_duration, align 1, !range !5, !noundef !6
  %60 = trunc nuw i8 %59 to i1
  br i1 %60, label %.critedge22.thread, label %61

61:                                               ; preds = %58
  %62 = load i8, ptr @xact_is_sampled, align 1, !range !5, !noundef !6
  %63 = trunc nuw i8 %62 to i1
  br i1 %63, label %.critedge22.thread, label %.sink.split

.critedge22.thread:                               ; preds = %61, %58
  %64 = load i64, ptr %3, align 8
  %65 = mul i64 %64, 1000
  %66 = sext i32 %18 to i64
  %67 = add i64 %65, %66
  %68 = load i32, ptr %4, align 4
  %69 = srem i32 %68, 1000
  %70 = call i32 (ptr, i64, ptr, ...) @pg_snprintf(ptr noundef %0, i64 noundef 32, ptr noundef nonnull @.str.9, i64 noundef %67, i32 noundef %69) #22
  %71 = load i8, ptr @xact_is_sampled, align 1, !range !5, !noundef !6
  %72 = trunc nuw i8 %71 to i1
  %.not = xor i1 %72, true
  %brmerge24 = or i1 %1, %.not
  br i1 %brmerge24, label %80, label %.sink.split

.critedge31:                                      ; preds = %.critedge22..critedge31_crit_edge, %52
  %73 = phi i32 [ %.pre, %.critedge22..critedge31_crit_edge ], [ %17, %52 ]
  %74 = load i64, ptr %3, align 8
  %75 = mul i64 %74, 1000
  %76 = sext i32 %18 to i64
  %77 = add i64 %75, %76
  %78 = srem i32 %73, 1000
  %79 = call i32 (ptr, i64, ptr, ...) @pg_snprintf(ptr noundef %0, i64 noundef 32, ptr noundef nonnull @.str.9, i64 noundef %77, i32 noundef %78) #22
  br i1 %1, label %80, label %.sink.split

80:                                               ; preds = %.critedge22.thread, %.critedge31
  br label %.sink.split

.sink.split:                                      ; preds = %61, %.critedge31, %.critedge22.thread, %80
  %.1.ph = phi i32 [ 2, %.critedge31 ], [ 2, %.critedge22.thread ], [ 1, %80 ], [ 0, %61 ]
  call void @llvm.lifetime.end.p0(i64 4, ptr nonnull %4) #22
  call void @llvm.lifetime.end.p0(i64 8, ptr nonnull %3) #22
  br label %81

81:                                               ; preds = %.sink.split, %11
  %.1 = phi i32 [ 0, %11 ], [ %.1.ph, %.sink.split ]
  ret i32 %.1
}